target datalayout = "e-m:e-p270:32:32-p271:32:32-p272:64:64-i64:64-i128:128-f80:128-n8:16:32:64-S128"
target triple = "x86_64-pc-linux-gnu"

%struct.lzma_outq = type { ptr, ptr, i64, ptr, i64, i64, i32, i32, i32 }
%struct.lzma_outbuf_s = type { ptr, ptr, i64, i64, i64, i8, i32, i64, i64, [0 x i8] }

; Function Attrs: nounwind uwtable
define dso_local zeroext i1 @lzma_outq_is_readable(ptr noundef %0) #0 {
  %2 = alloca i1, align 1
  %3 = alloca ptr, align 8
  store ptr %0, ptr %3, align 8, !tbaa !10
  %4 = load ptr, ptr %3, align 8, !tbaa !10
  %5 = getelementptr inbounds nuw %struct.lzma_outq, ptr %4, i32 0, i32 0
  %6 = load ptr, ptr %5, align 8, !tbaa !21
  %7 = icmp eq ptr %6, null
  br i1 %7, label %8, label %9

8:                                                ; preds = %1
  store i1 false, ptr %2, align 1
  br label %28

9:                                                ; preds = %1
  %10 = load ptr, ptr %3, align 8, !tbaa !10
  %11 = getelementptr inbounds nuw %struct.lzma_outq, ptr %10, i32 0, i32 2
  %12 = load i64, ptr %11, align 8, !tbaa !25
  %13 = load ptr, ptr %3, align 8, !tbaa !10
  %14 = getelementptr inbounds nuw %struct.lzma_outq, ptr %13, i32 0, i32 0
  %15 = load ptr, ptr %14, align 8, !tbaa !21
  %16 = getelementptr inbounds nuw %struct.lzma_outbuf_s, ptr %15, i32 0, i32 3
  %17 = load i64, ptr %16, align 8, !tbaa !4
  %18 = icmp ult i64 %12, %17
  br i1 %18, label %26, label %19

19:                                               ; preds = %9
  %20 = load ptr, ptr %3, align 8, !tbaa !10
  %21 = getelementptr inbounds nuw %struct.lzma_outq, ptr %20, i32 0, i32 0
  %22 = load ptr, ptr %21, align 8, !tbaa !21
  %23 = getelementptr inbounds nuw %struct.lzma_outbuf_s, ptr %22, i32 0, i32 5
  %24 = load i8, ptr %23, align 8, !tbaa !30, !range !32, !noundef !33
  %25 = trunc i8 %24 to i1
  br label %26

26:                                               ; preds = %19, %9
  %27 = phi i1 [ true, %9 ], [ %25, %19 ]
  store i1 %27, ptr %2, align 1
  br label %28

28:                                               ; preds = %26, %8
  %29 = load i1, ptr %2, align 1
  ret i1 %29
}