; Function Attrs: mustprogress nofree norecurse nosync nounwind willreturn memory(read, inaccessiblemem: none) uwtable
define dso_local zeroext i1 @lzma_outq_is_readable(ptr noundef readonly captures(none) %0) local_unnamed_addr #4 {
  %2 = load ptr, ptr %0, align 8, !tbaa !19
  %3 = icmp eq ptr %2, null
  br i1 %3, label %14, label %4

4:                                                ; preds = %1
  %5 = getelementptr inbounds nuw i8, ptr %0, i64 16
  %6 = load i64, ptr %5, align 8, !tbaa !26
  %7 = getelementptr inbounds nuw i8, ptr %2, i64 24
  %8 = load i64, ptr %7, align 8, !tbaa !14
  %9 = icmp ult i64 %6, %8
  br i1 %9, label %14, label %10

10:                                               ; preds = %4
  %11 = getelementptr inbounds nuw i8, ptr %2, i64 40
  %12 = load i8, ptr %11, align 8, !tbaa !29, !range !32, !noundef !33
  %13 = trunc nuw i8 %12 to i1
  br label %14

14:                                               ; preds = %4, %10, %1
  %.0 = phi i1 [ false, %1 ], [ true, %4 ], [ %13, %10 ]
  ret i1 %.0
}